
vision.elf:     file format elf32-littleriscv


Disassembly of section .text:

00000000 <_start>:
   0:	00002137          	lui	sp,0x2
   4:	00c000ef          	jal	10 <bootloader_main>
   8:	2d8000ef          	jal	2e0 <main>

0000000c <end_loop>:
   c:	0000006f          	j	c <end_loop>

00000010 <bootloader_main>:
  10:	fe010113          	addi	sp,sp,-32 # 1fe0 <image_pixels+0xfb0>
  14:	00112e23          	sw	ra,28(sp)
  18:	00812c23          	sw	s0,24(sp)
  1c:	02010413          	addi	s0,sp,32
  20:	000067b7          	lui	a5,0x6
  24:	01078793          	addi	a5,a5,16 # 6010 <image_pixels+0x4fe0>
  28:	0007a783          	lw	a5,0(a5)
  2c:	0017f793          	andi	a5,a5,1
  30:	08079a63          	bnez	a5,c4 <bootloader_main+0xb4>
  34:	000067b7          	lui	a5,0x6
  38:	0007a703          	lw	a4,0(a5) # 6000 <image_pixels+0x4fd0>
  3c:	000087b7          	lui	a5,0x8
  40:	00f777b3          	and	a5,a4,a5
  44:	08078463          	beqz	a5,cc <bootloader_main+0xbc>
  48:	fe042623          	sw	zero,-20(s0)
  4c:	0480006f          	j	94 <bootloader_main+0x84>
  50:	00000013          	nop
  54:	000057b7          	lui	a5,0x5
  58:	00c78793          	addi	a5,a5,12 # 500c <image_pixels+0x3fdc>
  5c:	0007a783          	lw	a5,0(a5)
  60:	0017f793          	andi	a5,a5,1
  64:	fe0786e3          	beqz	a5,50 <bootloader_main+0x40>
  68:	000057b7          	lui	a5,0x5
  6c:	00878793          	addi	a5,a5,8 # 5008 <image_pixels+0x3fd8>
  70:	0007a683          	lw	a3,0(a5)
  74:	00001737          	lui	a4,0x1
  78:	fec42783          	lw	a5,-20(s0)
  7c:	00f707b3          	add	a5,a4,a5
  80:	0ff6f713          	zext.b	a4,a3
  84:	00e78023          	sb	a4,0(a5)
  88:	fec42783          	lw	a5,-20(s0)
  8c:	00178793          	addi	a5,a5,1
  90:	fef42623          	sw	a5,-20(s0)
  94:	fec42703          	lw	a4,-20(s0)
  98:	000017b7          	lui	a5,0x1
  9c:	bff78793          	addi	a5,a5,-1025 # bff <main+0x91f>
  a0:	fae7fae3          	bgeu	a5,a4,54 <bootloader_main+0x44>
  a4:	0080006f          	j	ac <bootloader_main+0x9c>
  a8:	00000013          	nop
  ac:	000067b7          	lui	a5,0x6
  b0:	0007a703          	lw	a4,0(a5) # 6000 <image_pixels+0x4fd0>
  b4:	000087b7          	lui	a5,0x8
  b8:	00f777b3          	and	a5,a4,a5
  bc:	fe0796e3          	bnez	a5,a8 <bootloader_main+0x98>
  c0:	0100006f          	j	d0 <bootloader_main+0xc0>
  c4:	00000013          	nop
  c8:	0080006f          	j	d0 <bootloader_main+0xc0>
  cc:	00000013          	nop
  d0:	01c12083          	lw	ra,28(sp)
  d4:	01812403          	lw	s0,24(sp)
  d8:	02010113          	addi	sp,sp,32
  dc:	00008067          	ret

000000e0 <acknowledge_warm_reset>:
  e0:	ff010113          	addi	sp,sp,-16
  e4:	00112623          	sw	ra,12(sp)
  e8:	00812423          	sw	s0,8(sp)
  ec:	01010413          	addi	s0,sp,16
  f0:	000067b7          	lui	a5,0x6
  f4:	01478793          	addi	a5,a5,20 # 6014 <image_pixels+0x4fe4>
  f8:	00100713          	li	a4,1
  fc:	00e7a023          	sw	a4,0(a5)
 100:	00000013          	nop
 104:	00c12083          	lw	ra,12(sp)
 108:	00812403          	lw	s0,8(sp)
 10c:	01010113          	addi	sp,sp,16
 110:	00008067          	ret

00000114 <show_selected_filter>:
 114:	ff010113          	addi	sp,sp,-16
 118:	00112623          	sw	ra,12(sp)
 11c:	00812423          	sw	s0,8(sp)
 120:	01010413          	addi	s0,sp,16
 124:	000067b7          	lui	a5,0x6
 128:	0007a703          	lw	a4,0(a5) # 6000 <image_pixels+0x4fd0>
 12c:	000037b7          	lui	a5,0x3
 130:	00f77713          	andi	a4,a4,15
 134:	00e7a023          	sw	a4,0(a5) # 3000 <image_pixels+0x1fd0>
 138:	00000013          	nop
 13c:	00c12083          	lw	ra,12(sp)
 140:	00812403          	lw	s0,8(sp)
 144:	01010113          	addi	sp,sp,16
 148:	00008067          	ret

0000014c <run_filter_once>:
 14c:	fe010113          	addi	sp,sp,-32
 150:	00112e23          	sw	ra,28(sp)
 154:	00812c23          	sw	s0,24(sp)
 158:	00912a23          	sw	s1,20(sp)
 15c:	01412823          	sw	s4,16(sp)
 160:	02010413          	addi	s0,sp,32
 164:	00000493          	li	s1,0
 168:	0440006f          	j	1ac <run_filter_once+0x60>
 16c:	000017b7          	lui	a5,0x1
 170:	00048713          	mv	a4,s1
 174:	00e787b3          	add	a5,a5,a4
 178:	0007c783          	lbu	a5,0(a5) # 1000 <SWITCHES>
 17c:	0ff7f793          	zext.b	a5,a5
 180:	fef42423          	sw	a5,-24(s0)
 184:	000027b7          	lui	a5,0x2
 188:	02478793          	addi	a5,a5,36 # 2024 <image_pixels+0xff4>
 18c:	fe842703          	lw	a4,-24(s0)
 190:	00e7a023          	sw	a4,0(a5)
 194:	00000013          	nop
 198:	00000013          	nop
 19c:	00000013          	nop
 1a0:	00048793          	mv	a5,s1
 1a4:	00178793          	addi	a5,a5,1
 1a8:	00078493          	mv	s1,a5
 1ac:	00048713          	mv	a4,s1
 1b0:	10100793          	li	a5,257
 1b4:	fae7dce3          	bge	a5,a4,16c <run_filter_once+0x20>
 1b8:	10200493          	li	s1,258
 1bc:	0800006f          	j	23c <run_filter_once+0xf0>
 1c0:	000017b7          	lui	a5,0x1
 1c4:	00048713          	mv	a4,s1
 1c8:	00e787b3          	add	a5,a5,a4
 1cc:	0007c783          	lbu	a5,0(a5) # 1000 <SWITCHES>
 1d0:	0ff7f793          	zext.b	a5,a5
 1d4:	fef42623          	sw	a5,-20(s0)
 1d8:	000027b7          	lui	a5,0x2
 1dc:	02478793          	addi	a5,a5,36 # 2024 <image_pixels+0xff4>
 1e0:	fec42703          	lw	a4,-20(s0)
 1e4:	00e7a023          	sw	a4,0(a5)
 1e8:	00000013          	nop
 1ec:	00000013          	nop
 1f0:	00000013          	nop
 1f4:	000027b7          	lui	a5,0x2
 1f8:	02878793          	addi	a5,a5,40 # 2028 <image_pixels+0xff8>
 1fc:	0007a783          	lw	a5,0(a5)
 200:	00078a13          	mv	s4,a5
 204:	0080006f          	j	20c <run_filter_once+0xc0>
 208:	00000013          	nop
 20c:	000057b7          	lui	a5,0x5
 210:	00478793          	addi	a5,a5,4 # 5004 <image_pixels+0x3fd4>
 214:	0007a783          	lw	a5,0(a5)
 218:	0017f713          	andi	a4,a5,1
 21c:	00100793          	li	a5,1
 220:	fef704e3          	beq	a4,a5,208 <run_filter_once+0xbc>
 224:	000057b7          	lui	a5,0x5
 228:	000a0713          	mv	a4,s4
 22c:	00e7a023          	sw	a4,0(a5) # 5000 <image_pixels+0x3fd0>
 230:	00048793          	mv	a5,s1
 234:	00178793          	addi	a5,a5,1
 238:	00078493          	mv	s1,a5
 23c:	00048713          	mv	a4,s1
 240:	000017b7          	lui	a5,0x1
 244:	bff78793          	addi	a5,a5,-1025 # bff <main+0x91f>
 248:	f6e7dce3          	bge	a5,a4,1c0 <run_filter_once+0x74>
 24c:	00000493          	li	s1,0
 250:	0640006f          	j	2b4 <run_filter_once+0x168>
 254:	000027b7          	lui	a5,0x2
 258:	02478793          	addi	a5,a5,36 # 2024 <image_pixels+0xff4>
 25c:	0007a023          	sw	zero,0(a5)
 260:	00000013          	nop
 264:	00000013          	nop
 268:	00000013          	nop
 26c:	000027b7          	lui	a5,0x2
 270:	02878793          	addi	a5,a5,40 # 2028 <image_pixels+0xff8>
 274:	0007a783          	lw	a5,0(a5)
 278:	00078a13          	mv	s4,a5
 27c:	0080006f          	j	284 <run_filter_once+0x138>
 280:	00000013          	nop
 284:	000057b7          	lui	a5,0x5
 288:	00478793          	addi	a5,a5,4 # 5004 <image_pixels+0x3fd4>
 28c:	0007a783          	lw	a5,0(a5)
 290:	0017f713          	andi	a4,a5,1
 294:	00100793          	li	a5,1
 298:	fef704e3          	beq	a4,a5,280 <run_filter_once+0x134>
 29c:	000057b7          	lui	a5,0x5
 2a0:	000a0713          	mv	a4,s4
 2a4:	00e7a023          	sw	a4,0(a5) # 5000 <image_pixels+0x3fd0>
 2a8:	00048793          	mv	a5,s1
 2ac:	00178793          	addi	a5,a5,1
 2b0:	00078493          	mv	s1,a5
 2b4:	00048713          	mv	a4,s1
 2b8:	10100793          	li	a5,257
 2bc:	f8e7dce3          	bge	a5,a4,254 <run_filter_once+0x108>
 2c0:	00000013          	nop
 2c4:	00000013          	nop
 2c8:	01c12083          	lw	ra,28(sp)
 2cc:	01812403          	lw	s0,24(sp)
 2d0:	01412483          	lw	s1,20(sp)
 2d4:	01012a03          	lw	s4,16(sp)
 2d8:	02010113          	addi	sp,sp,32
 2dc:	00008067          	ret

000002e0 <main>:
 2e0:	ff010113          	addi	sp,sp,-16
 2e4:	00112623          	sw	ra,12(sp)
 2e8:	00812423          	sw	s0,8(sp)
 2ec:	01010413          	addi	s0,sp,16
 2f0:	df1ff0ef          	jal	e0 <acknowledge_warm_reset>
 2f4:	e21ff0ef          	jal	114 <show_selected_filter>
 2f8:	e55ff0ef          	jal	14c <run_filter_once>
 2fc:	0000006f          	j	2fc <main+0x1c>
