
vision.elf:     file format elf32-littleriscv


Disassembly of section .text:

00000000 <_start>:
   0:	00010137          	lui	sp,0x10
   4:	04c000ef          	jal	50 <bootloader_main>
   8:	244000ef          	jal	24c <main>

0000000c <end_loop>:
   c:	0000006f          	j	c <end_loop>

00000010 <mmio_read32>:
  10:	fd010113          	addi	sp,sp,-48 # ffd0 <main+0xfd84>
  14:	02112623          	sw	ra,44(sp)
  18:	02812423          	sw	s0,40(sp)
  1c:	03010413          	addi	s0,sp,48
  20:	fca42e23          	sw	a0,-36(s0)
  24:	fdc42783          	lw	a5,-36(s0)
  28:	0007a783          	lw	a5,0(a5)
  2c:	fef42623          	sw	a5,-20(s0)
  30:	00000013          	nop
  34:	00000013          	nop
  38:	fec42783          	lw	a5,-20(s0)
  3c:	00078513          	mv	a0,a5
  40:	02c12083          	lw	ra,44(sp)
  44:	02812403          	lw	s0,40(sp)
  48:	03010113          	addi	sp,sp,48
  4c:	00008067          	ret

00000050 <bootloader_main>:
  50:	fe010113          	addi	sp,sp,-32
  54:	00112e23          	sw	ra,28(sp)
  58:	00812c23          	sw	s0,24(sp)
  5c:	02010413          	addi	s0,sp,32
  60:	000167b7          	lui	a5,0x16
  64:	01078793          	addi	a5,a5,16 # 16010 <main+0x15dc4>
  68:	00078513          	mv	a0,a5
  6c:	fa5ff0ef          	jal	10 <mmio_read32>
  70:	00050793          	mv	a5,a0
  74:	0017f793          	andi	a5,a5,1
  78:	0a079c63          	bnez	a5,130 <bootloader_main+0xe0>
  7c:	0080006f          	j	84 <bootloader_main+0x34>
  80:	00000013          	nop
  84:	000167b7          	lui	a5,0x16
  88:	00078513          	mv	a0,a5
  8c:	f85ff0ef          	jal	10 <mmio_read32>
  90:	00050713          	mv	a4,a0
  94:	000087b7          	lui	a5,0x8
  98:	00f777b3          	and	a5,a4,a5
  9c:	fe0782e3          	beqz	a5,80 <bootloader_main+0x30>
  a0:	fe042623          	sw	zero,-20(s0)
  a4:	0580006f          	j	fc <bootloader_main+0xac>
  a8:	00000013          	nop
  ac:	000157b7          	lui	a5,0x15
  b0:	00c78793          	addi	a5,a5,12 # 1500c <main+0x14dc0>
  b4:	00078513          	mv	a0,a5
  b8:	f59ff0ef          	jal	10 <mmio_read32>
  bc:	00050793          	mv	a5,a0
  c0:	0017f793          	andi	a5,a5,1
  c4:	fe0782e3          	beqz	a5,a8 <bootloader_main+0x58>
  c8:	000157b7          	lui	a5,0x15
  cc:	00878793          	addi	a5,a5,8 # 15008 <main+0x14dbc>
  d0:	00078513          	mv	a0,a5
  d4:	f3dff0ef          	jal	10 <mmio_read32>
  d8:	00050693          	mv	a3,a0
  dc:	00001737          	lui	a4,0x1
  e0:	fec42783          	lw	a5,-20(s0)
  e4:	00f707b3          	add	a5,a4,a5
  e8:	0ff6f713          	zext.b	a4,a3
  ec:	00e78023          	sb	a4,0(a5)
  f0:	fec42783          	lw	a5,-20(s0)
  f4:	00178793          	addi	a5,a5,1
  f8:	fef42623          	sw	a5,-20(s0)
  fc:	fec42703          	lw	a4,-20(s0)
 100:	0000c7b7          	lui	a5,0xc
 104:	faf764e3          	bltu	a4,a5,ac <bootloader_main+0x5c>
 108:	0080006f          	j	110 <bootloader_main+0xc0>
 10c:	00000013          	nop
 110:	000167b7          	lui	a5,0x16
 114:	00078513          	mv	a0,a5
 118:	ef9ff0ef          	jal	10 <mmio_read32>
 11c:	00050713          	mv	a4,a0
 120:	000087b7          	lui	a5,0x8
 124:	00f777b3          	and	a5,a4,a5
 128:	fe0792e3          	bnez	a5,10c <bootloader_main+0xbc>
 12c:	0080006f          	j	134 <bootloader_main+0xe4>
 130:	00000013          	nop
 134:	01c12083          	lw	ra,28(sp)
 138:	01812403          	lw	s0,24(sp)
 13c:	02010113          	addi	sp,sp,32
 140:	00008067          	ret

00000144 <acknowledge_warm_reset>:
 144:	ff010113          	addi	sp,sp,-16
 148:	00112623          	sw	ra,12(sp)
 14c:	00812423          	sw	s0,8(sp)
 150:	01010413          	addi	s0,sp,16
 154:	000167b7          	lui	a5,0x16
 158:	01078793          	addi	a5,a5,16 # 16010 <main+0x15dc4>
 15c:	0007a783          	lw	a5,0(a5)
 160:	0017f793          	andi	a5,a5,1
 164:	00078a63          	beqz	a5,178 <acknowledge_warm_reset+0x34>
 168:	000167b7          	lui	a5,0x16
 16c:	01478793          	addi	a5,a5,20 # 16014 <main+0x15dc8>
 170:	00100713          	li	a4,1
 174:	00e7a023          	sw	a4,0(a5)
 178:	00000013          	nop
 17c:	00c12083          	lw	ra,12(sp)
 180:	00812403          	lw	s0,8(sp)
 184:	01010113          	addi	sp,sp,16
 188:	00008067          	ret

0000018c <uart_send_byte>:
 18c:	fe010113          	addi	sp,sp,-32
 190:	00112e23          	sw	ra,28(sp)
 194:	00812c23          	sw	s0,24(sp)
 198:	02010413          	addi	s0,sp,32
 19c:	00050793          	mv	a5,a0
 1a0:	fef407a3          	sb	a5,-17(s0)
 1a4:	0080006f          	j	1ac <uart_send_byte+0x20>
 1a8:	00000013          	nop
 1ac:	000157b7          	lui	a5,0x15
 1b0:	00478793          	addi	a5,a5,4 # 15004 <main+0x14db8>
 1b4:	0007a783          	lw	a5,0(a5)
 1b8:	0017f793          	andi	a5,a5,1
 1bc:	fe0796e3          	bnez	a5,1a8 <uart_send_byte+0x1c>
 1c0:	000157b7          	lui	a5,0x15
 1c4:	fef44703          	lbu	a4,-17(s0)
 1c8:	00e7a023          	sw	a4,0(a5) # 15000 <main+0x14db4>
 1cc:	00000013          	nop
 1d0:	01c12083          	lw	ra,28(sp)
 1d4:	01812403          	lw	s0,24(sp)
 1d8:	02010113          	addi	sp,sp,32
 1dc:	00008067          	ret

000001e0 <uart_send_rgb>:
 1e0:	fd010113          	addi	sp,sp,-48
 1e4:	02112623          	sw	ra,44(sp)
 1e8:	02812423          	sw	s0,40(sp)
 1ec:	03010413          	addi	s0,sp,48
 1f0:	fca42e23          	sw	a0,-36(s0)
 1f4:	fdc42783          	lw	a5,-36(s0)
 1f8:	0107d793          	srli	a5,a5,0x10
 1fc:	fef407a3          	sb	a5,-17(s0)
 200:	fdc42783          	lw	a5,-36(s0)
 204:	0087d793          	srli	a5,a5,0x8
 208:	fef40723          	sb	a5,-18(s0)
 20c:	fdc42783          	lw	a5,-36(s0)
 210:	fef406a3          	sb	a5,-19(s0)
 214:	fef44783          	lbu	a5,-17(s0)
 218:	00078513          	mv	a0,a5
 21c:	f71ff0ef          	jal	18c <uart_send_byte>
 220:	fee44783          	lbu	a5,-18(s0)
 224:	00078513          	mv	a0,a5
 228:	f65ff0ef          	jal	18c <uart_send_byte>
 22c:	fed44783          	lbu	a5,-19(s0)
 230:	00078513          	mv	a0,a5
 234:	f59ff0ef          	jal	18c <uart_send_byte>
 238:	00000013          	nop
 23c:	02c12083          	lw	ra,44(sp)
 240:	02812403          	lw	s0,40(sp)
 244:	03010113          	addi	sp,sp,48
 248:	00008067          	ret

0000024c <main>:
 24c:	fe010113          	addi	sp,sp,-32
 250:	00112e23          	sw	ra,28(sp)
 254:	00812c23          	sw	s0,24(sp)
 258:	02010413          	addi	s0,sp,32
 25c:	fe042623          	sw	zero,-20(s0)
 260:	ee5ff0ef          	jal	144 <acknowledge_warm_reset>
 264:	fe042423          	sw	zero,-24(s0)
 268:	0ac0006f          	j	314 <main+0xc8>
 26c:	fe842703          	lw	a4,-24(s0)
 270:	000037b7          	lui	a5,0x3
 274:	02f77063          	bgeu	a4,a5,294 <main+0x48>
 278:	00001737          	lui	a4,0x1
 27c:	fe842783          	lw	a5,-24(s0)
 280:	00279793          	slli	a5,a5,0x2
 284:	00f707b3          	add	a5,a4,a5
 288:	0007a783          	lw	a5,0(a5) # 3000 <main+0x2db4>
 28c:	fef42223          	sw	a5,-28(s0)
 290:	0080006f          	j	298 <main+0x4c>
 294:	fe042223          	sw	zero,-28(s0)
 298:	000127b7          	lui	a5,0x12
 29c:	02478793          	addi	a5,a5,36 # 12024 <main+0x11dd8>
 2a0:	fe442703          	lw	a4,-28(s0)
 2a4:	00e7a023          	sw	a4,0(a5)
 2a8:	00000013          	nop
 2ac:	00000013          	nop
 2b0:	00000013          	nop
 2b4:	fe842703          	lw	a4,-24(s0)
 2b8:	20100793          	li	a5,513
 2bc:	04e7f663          	bgeu	a5,a4,308 <main+0xbc>
 2c0:	000127b7          	lui	a5,0x12
 2c4:	02878793          	addi	a5,a5,40 # 12028 <main+0x11ddc>
 2c8:	0007a783          	lw	a5,0(a5)
 2cc:	fef42023          	sw	a5,-32(s0)
 2d0:	fec42703          	lw	a4,-20(s0)
 2d4:	000037b7          	lui	a5,0x3
 2d8:	02f77463          	bgeu	a4,a5,300 <main+0xb4>
 2dc:	00030737          	lui	a4,0x30
 2e0:	fec42783          	lw	a5,-20(s0)
 2e4:	00279793          	slli	a5,a5,0x2
 2e8:	00f707b3          	add	a5,a4,a5
 2ec:	fe042703          	lw	a4,-32(s0)
 2f0:	00e7a023          	sw	a4,0(a5) # 3000 <main+0x2db4>
 2f4:	fec42783          	lw	a5,-20(s0)
 2f8:	00178793          	addi	a5,a5,1
 2fc:	fef42623          	sw	a5,-20(s0)
 300:	fe042503          	lw	a0,-32(s0)
 304:	eddff0ef          	jal	1e0 <uart_send_rgb>
 308:	fe842783          	lw	a5,-24(s0)
 30c:	00178793          	addi	a5,a5,1
 310:	fef42423          	sw	a5,-24(s0)
 314:	fe842703          	lw	a4,-24(s0)
 318:	000037b7          	lui	a5,0x3
 31c:	20178793          	addi	a5,a5,513 # 3201 <main+0x2fb5>
 320:	f4e7f6e3          	bgeu	a5,a4,26c <main+0x20>
 324:	00000013          	nop
 328:	ffdff06f          	j	324 <main+0xd8>
